; Function Attrs: nounwind uwtable
define i32 @EVP_PKEY_set_utf8_string_param(ptr noundef captures(address_is_null) %0, ptr noundef %1, ptr noundef %2) local_unnamed_addr #0 {
  %4 = alloca [2 x %struct.ossl_param_st], align 16
  %5 = alloca %struct.ossl_param_st, align 8
  call void @llvm.lifetime.start.p0(i64 80, ptr nonnull %4) #12
  %6 = icmp eq ptr %1, null
  br i1 %6, label %EVP_PKEY_set_params.exit, label %7

7:                                                ; preds = %3
  call void @OSSL_PARAM_construct_utf8_string(ptr dead_on_unwind nonnull writable sret(%struct.ossl_param_st) align 8 %4, ptr noundef nonnull %1, ptr noundef %2, i64 noundef 0) #12
  %8 = getelementptr inbounds nuw i8, ptr %4, i64 40
  call void @llvm.lifetime.start.p0(i64 40, ptr nonnull %5) #12
  call void @OSSL_PARAM_construct_end(ptr dead_on_unwind nonnull writable sret(%struct.ossl_param_st) align 8 %5) #12
  call void @llvm.memcpy.p0.p0.i64(ptr noundef nonnull align 8 dereferenceable(40) %8, ptr noundef nonnull align 8 dereferenceable(40) %5, i64 40, i1 false), !tbaa.struct !73
  call void @llvm.lifetime.end.p0(i64 40, ptr nonnull %5) #12
  %.not.i = icmp eq ptr %0, null
  br i1 %.not.i, label %19, label %9

9:                                                ; preds = %7
  %10 = getelementptr inbounds nuw i8, ptr %0, i64 96
  %11 = load ptr, ptr %10, align 8, !tbaa !30
  %.not7.i = icmp eq ptr %11, null
  br i1 %.not7.i, label %19, label %12

12:                                               ; preds = %9
  %13 = getelementptr inbounds nuw i8, ptr %0, i64 112
  %14 = load i64, ptr %13, align 8, !tbaa !95
  %15 = add i64 %14, 1
  store i64 %15, ptr %13, align 8, !tbaa !95
  %16 = getelementptr inbounds nuw i8, ptr %0, i64 104
  %17 = load ptr, ptr %16, align 8, !tbaa !33
  %18 = call i32 @evp_keymgmt_set_params(ptr noundef nonnull %11, ptr noundef %17, ptr noundef nonnull %4) #12
  br label %EVP_PKEY_set_params.exit

19:                                               ; preds = %9, %7
  call void @ERR_new() #12
  call void @ERR_set_debug(ptr noundef nonnull @.str, i32 noundef 2438, ptr noundef nonnull @__func__.EVP_PKEY_set_params) #12
  call void (i32, i32, ptr, ...) @ERR_set_error(i32 noundef 6, i32 noundef 163, ptr noundef null) #12
  br label %EVP_PKEY_set_params.exit

EVP_PKEY_set_params.exit:                         ; preds = %19, %12, %3
  %.0 = phi i32 [ 0, %3 ], [ %18, %12 ], [ 0, %19 ]
  call void @llvm.lifetime.end.p0(i64 80, ptr nonnull %4) #12
  ret i32 %.0
}